target datalayout = "e-m:e-p270:32:32-p271:32:32-p272:64:64-i64:64-i128:128-f80:128-n8:16:32:64-S128"
target triple = "x86_64-pc-linux-gnu"

%"class.igl::opengl::glfw::imgui::ImGuiPlugin" = type { %"class.igl::opengl::glfw::ViewerPlugin", float, float, ptr, %"class.std::vector" }
%"class.igl::opengl::glfw::ViewerPlugin" = type { ptr, %"class.std::__cxx11::basic_string", ptr }
%"class.std::__cxx11::basic_string" = type { %"struct.std::__cxx11::basic_string<char>::_Alloc_hider", i64, %union.anon }
%"struct.std::__cxx11::basic_string<char>::_Alloc_hider" = type { ptr }
%union.anon = type { i64, [8 x i8] }
%"class.std::vector" = type { %"struct.std::_Vector_base" }
%"struct.std::_Vector_base" = type { %"struct.std::_Vector_base<igl::opengl::glfw::imgui::ImGuiWidget *, std::allocator<igl::opengl::glfw::imgui::ImGuiWidget *>>::_Vector_impl" }
%"struct.std::_Vector_base<igl::opengl::glfw::imgui::ImGuiWidget *, std::allocator<igl::opengl::glfw::imgui::ImGuiWidget *>>::_Vector_impl" = type { %"struct.std::_Vector_base<igl::opengl::glfw::imgui::ImGuiWidget *, std::allocator<igl::opengl::glfw::imgui::ImGuiWidget *>>::_Vector_impl_data" }
%"struct.std::_Vector_base<igl::opengl::glfw::imgui::ImGuiWidget *, std::allocator<igl::opengl::glfw::imgui::ImGuiWidget *>>::_Vector_impl_data" = type { ptr, ptr, ptr }
%struct.ImGuiIO = type { i32, i32, %struct.ImVec2, float, float, ptr, ptr, float, float, float, [22 x i32], float, float, ptr, ptr, float, i8, ptr, %struct.ImVec2, i8, i8, i8, i8, i8, i8, float, ptr, ptr, ptr, ptr, ptr, ptr, ptr, ptr, ptr, ptr, %struct.ImVec2, [5 x i8], float, float, i8, i8, i8, i8, [512 x i8], [20 x float], i8, i8, i8, i8, i8, i8, i8, float, i32, i32, i32, i32, i32, %struct.ImVec2, i8, i32, i32, %struct.ImVec2, [5 x %struct.ImVec2], [5 x double], [5 x i8], [5 x i8], [5 x i8], [5 x i8], [5 x i8], [5 x i8], [5 x float], [5 x float], [5 x %struct.ImVec2], [5 x float], [512 x float], [512 x float], [20 x float], [20 x float], float, i8, i16, %struct.ImVector }
%struct.ImVec2 = type { float, float }
%struct.ImVector = type { i32, i32, ptr }

; Function Attrs: mustprogress uwtable
define dso_local void @_ZN3igl6opengl4glfw5imgui11ImGuiPlugin11post_resizeEii(ptr noundef nonnull align 8 dereferenceable(88) %0, i32 noundef %1, i32 noundef %2) unnamed_addr #3 align 2 {
  %4 = alloca ptr, align 8
  %5 = alloca i32, align 4
  %6 = alloca i32, align 4
  store ptr %0, ptr %4, align 8, !tbaa !15
  store i32 %1, ptr %5, align 4, !tbaa !98
  store i32 %2, ptr %6, align 4, !tbaa !98
  %7 = load ptr, ptr %4, align 8
  %8 = getelementptr inbounds nuw %"class.igl::opengl::glfw::imgui::ImGuiPlugin", ptr %7, i32 0, i32 3
  %9 = load ptr, ptr %8, align 8, !tbaa !19
  %10 = icmp ne ptr %9, null
  br i1 %10, label %11, label %22

11:                                               ; preds = %3
  %12 = load i32, ptr %5, align 4, !tbaa !98
  %13 = sitofp i32 %12 to float
  %14 = call noundef nonnull align 8 dereferenceable(5464) ptr @_ZN5ImGui5GetIOEv()
  %15 = getelementptr inbounds nuw %struct.ImGuiIO, ptr %14, i32 0, i32 2
  %16 = getelementptr inbounds nuw %struct.ImVec2, ptr %15, i32 0, i32 0
  store float %13, ptr %16, align 8, !tbaa !107
  %17 = load i32, ptr %6, align 4, !tbaa !98
  %18 = sitofp i32 %17 to float
  %19 = call noundef nonnull align 8 dereferenceable(5464) ptr @_ZN5ImGui5GetIOEv()
  %20 = getelementptr inbounds nuw %struct.ImGuiIO, ptr %19, i32 0, i32 2
  %21 = getelementptr inbounds nuw %struct.ImVec2, ptr %20, i32 0, i32 1
  store float %18, ptr %21, align 4, !tbaa !108
  br label %22

22:                                               ; preds = %11, %3
  ret void
}