; Function Attrs: mustprogress uwtable
define dso_local void @_ZN3igl6opengl4glfw5imgui11ImGuiPlugin11post_resizeEii(ptr noundef nonnull readonly align 8 captures(none) dereferenceable(88) %0, i32 noundef %1, i32 noundef %2) unnamed_addr #0 align 2 {
  %4 = getelementptr inbounds nuw i8, ptr %0, i64 56
  %5 = load ptr, ptr %4, align 8, !tbaa !14
  %.not = icmp eq ptr %5, null
  br i1 %.not, label %13, label %6

6:                                                ; preds = %3
  %7 = sitofp i32 %1 to float
  %8 = tail call noundef nonnull align 8 dereferenceable(5464) ptr @_ZN5ImGui5GetIOEv()
  %9 = getelementptr inbounds nuw i8, ptr %8, i64 8
  store float %7, ptr %9, align 8, !tbaa !82
  %10 = sitofp i32 %2 to float
  %11 = tail call noundef nonnull align 8 dereferenceable(5464) ptr @_ZN5ImGui5GetIOEv()
  %12 = getelementptr inbounds nuw i8, ptr %11, i64 12
  store float %10, ptr %12, align 4, !tbaa !83
  br label %13

13:                                               ; preds = %6, %3
  ret void
}